target datalayout = "e-m:e-p270:32:32-p271:32:32-p272:64:64-i64:64-i128:128-f80:128-n8:16:32:64-S128"
target triple = "x86_64-pc-linux-gnu"

%class.BitMap = type { ptr, i64 }

; Function Attrs: mustprogress nounwind uwtable
define linkonce_odr hidden noundef i64 @_Z9tail_maskm(i64 noundef %0) #1 comdat {
  %2 = alloca i64, align 8
  store i64 %0, ptr %2, align 8
  %3 = load i64, ptr %2, align 8
  %4 = shl i64 1, %3
  %5 = sub i64 %4, 1
  ret i64 %5
}

; Function Attrs: mustprogress nounwind uwtable
define linkonce_odr hidden noundef i64 @_ZN6BitMap23raw_to_words_align_downEm(i64 noundef %0) #1 comdat align 2 {
  %2 = alloca i64, align 8
  store i64 %0, ptr %2, align 8
  %3 = load i64, ptr %2, align 8
  %4 = lshr i64 %3, 6
  ret i64 %4
}

; Function Attrs: mustprogress nounwind uwtable
define linkonce_odr hidden void @_ZNK6BitMap12verify_limitEm(ptr noundef nonnull align 8 dereferenceable(16) %0, i64 noundef %1) #1 comdat align 2 {
  %3 = alloca ptr, align 8
  %4 = alloca i64, align 8
  store ptr %0, ptr %3, align 8
  store i64 %1, ptr %4, align 8
  ret void
}

; Function Attrs: mustprogress nounwind uwtable
define linkonce_odr hidden noundef i64 @_Z11tail_of_mapmm(i64 noundef %0, i64 noundef %1) #1 comdat {
  %3 = alloca i64, align 8
  %4 = alloca i64, align 8
  store i64 %0, ptr %3, align 8
  store i64 %1, ptr %4, align 8
  %5 = load i64, ptr %3, align 8
  %6 = load i64, ptr %4, align 8
  %7 = call noundef i64 @_Z9tail_maskm(i64 noundef %6)
  %8 = and i64 %5, %7
  ret i64 %8
}

; Function Attrs: mustprogress nounwind uwtable
define linkonce_odr hidden noundef i64 @_ZN6BitMap11bit_in_wordEm(i64 noundef %0) #1 comdat align 2 {
  %2 = alloca i64, align 8
  store i64 %0, ptr %2, align 8
  %3 = load i64, ptr %2, align 8
  %4 = and i64 %3, 63
  ret i64 %4
}

; Function Attrs: mustprogress nounwind uwtable
define linkonce_odr hidden noundef i64 @_ZNK6BitMap19to_words_align_downEm(ptr noundef nonnull align 8 dereferenceable(16) %0, i64 noundef %1) #1 comdat align 2 {
  %3 = alloca ptr, align 8
  %4 = alloca i64, align 8
  store ptr %0, ptr %3, align 8
  store i64 %1, ptr %4, align 8
  %5 = load ptr, ptr %3, align 8
  %6 = load i64, ptr %4, align 8
  call void @_ZNK6BitMap12verify_limitEm(ptr noundef nonnull align 8 dereferenceable(16) %5, i64 noundef %6)
  %7 = load i64, ptr %4, align 8
  %8 = call noundef i64 @_ZN6BitMap23raw_to_words_align_downEm(i64 noundef %7)
  ret i64 %8
}

; Function Attrs: mustprogress nounwind uwtable
define linkonce_odr hidden noundef i64 @_ZNK6BitMap4sizeEv(ptr noundef nonnull align 8 dereferenceable(16) %0) #1 comdat align 2 {
  %2 = alloca ptr, align 8
  store ptr %0, ptr %2, align 8
  %3 = load ptr, ptr %2, align 8
  %4 = getelementptr inbounds %class.BitMap, ptr %3, i32 0, i32 1
  %5 = load i64, ptr %4, align 8
  ret i64 %5
}

; Function Attrs: mustprogress nounwind uwtable
define linkonce_odr hidden noundef ptr @_ZNK6BitMap3mapEv(ptr noundef nonnull align 8 dereferenceable(16) %0) #1 comdat align 2 {
  %2 = alloca ptr, align 8
  store ptr %0, ptr %2, align 8
  %3 = load ptr, ptr %2, align 8
  %4 = getelementptr inbounds %class.BitMap, ptr %3, i32 0, i32 0
  %5 = load ptr, ptr %4, align 8
  ret ptr %5
}

; Function Attrs: mustprogress nounwind uwtable
define hidden noundef zeroext i1 @_ZNK6BitMap7is_fullEv(ptr noundef nonnull align 8 dereferenceable(16) %0) #1 align 2 {
  %2 = alloca i1, align 1
  %3 = alloca ptr, align 8
  %4 = alloca ptr, align 8
  %5 = alloca i64, align 8
  %6 = alloca i64, align 8
  %7 = alloca i64, align 8
  store ptr %0, ptr %3, align 8
  %8 = load ptr, ptr %3, align 8
  %9 = call noundef ptr @_ZNK6BitMap3mapEv(ptr noundef nonnull align 8 dereferenceable(16) %8)
  store ptr %9, ptr %4, align 8
  %10 = call noundef i64 @_ZNK6BitMap4sizeEv(ptr noundef nonnull align 8 dereferenceable(16) %8)
  %11 = call noundef i64 @_ZNK6BitMap19to_words_align_downEm(ptr noundef nonnull align 8 dereferenceable(16) %8, i64 noundef %10)
  store i64 %11, ptr %5, align 8
  store i64 0, ptr %6, align 8
  br label %12

12:                                               ; preds = %25, %1
  %13 = load i64, ptr %6, align 8
  %14 = load i64, ptr %5, align 8
  %15 = icmp ult i64 %13, %14
  br i1 %15, label %16, label %28

16:                                               ; preds = %12
  %17 = load ptr, ptr %4, align 8
  %18 = load i64, ptr %6, align 8
  %19 = getelementptr inbounds i64, ptr %17, i64 %18
  %20 = load i64, ptr %19, align 8
  %21 = xor i64 %20, -1
  %22 = icmp ne i64 %21, 0
  br i1 %22, label %23, label %24

23:                                               ; preds = %16
  store i1 false, ptr %2, align 1
  br label %44

24:                                               ; preds = %16
  br label %25

25:                                               ; preds = %24
  %26 = load i64, ptr %6, align 8
  %27 = add i64 %26, 1
  store i64 %27, ptr %6, align 8
  br label %12, !llvm.loop !20

28:                                               ; preds = %12
  %29 = call noundef i64 @_ZNK6BitMap4sizeEv(ptr noundef nonnull align 8 dereferenceable(16) %8)
  %30 = call noundef i64 @_ZN6BitMap11bit_in_wordEm(i64 noundef %29)
  store i64 %30, ptr %7, align 8
  %31 = load i64, ptr %7, align 8
  %32 = icmp eq i64 %31, 0
  br i1 %32, label %42, label %33

33:                                               ; preds = %28
  %34 = load ptr, ptr %4, align 8
  %35 = load i64, ptr %5, align 8
  %36 = getelementptr inbounds i64, ptr %34, i64 %35
  %37 = load i64, ptr %36, align 8
  %38 = xor i64 %37, -1
  %39 = load i64, ptr %7, align 8
  %40 = call noundef i64 @_Z11tail_of_mapmm(i64 noundef %38, i64 noundef %39)
  %41 = icmp eq i64 %40, 0
  br label %42

42:                                               ; preds = %33, %28
  %43 = phi i1 [ true, %28 ], [ %41, %33 ]
  store i1 %43, ptr %2, align 1
  br label %44

44:                                               ; preds = %42, %23
  %45 = load i1, ptr %2, align 1
  ret i1 %45
}